; ModuleID = '32/952.c'
source_filename = "32/952.c"
target datalayout = "e-m:e-p270:32:32-p271:32:32-p272:64:64-i64:64-f80:128-n8:16:32:64-S128"
target triple = "x86_64-pc-linux-gnu"

@.str = private unnamed_addr constant [3 x i8] c"%d\00", align 1
@.str.1 = private unnamed_addr constant [3 x i8] c"%s\00", align 1
@.str.2 = private unnamed_addr constant [2 x i8] c"\0A\00", align 1
@.str.3 = private unnamed_addr constant [3 x i8] c"%c\00", align 1

; Function Attrs: noinline nounwind uwtable
define dso_local i32 @main() #0 {
  %1 = alloca i32, align 4
  %2 = alloca i32, align 4
  %3 = alloca i32, align 4
  %4 = alloca i32, align 4
  %5 = alloca i32, align 4
  %6 = alloca i32, align 4
  %7 = alloca i32, align 4
  %8 = alloca i32, align 4
  %9 = alloca [20 x [2 x [100 x i8]]], align 16
  store i32 0, i32* %1, align 4
  %10 = call i32 (i8*, ...) @__isoc99_scanf(i8* getelementptr inbounds ([3 x i8], [3 x i8]* @.str, i64 0, i64 0), i32* %2)
  store i32 0, i32* %3, align 4
  br label %11

11:                                               ; preds = %33, %0
  %12 = load i32, i32* %3, align 4
  %13 = load i32, i32* %2, align 4
  %14 = icmp slt i32 %12, %13
  br i1 %14, label %15, label %36

15:                                               ; preds = %11
  store i32 0, i32* %4, align 4
  br label %16

16:                                               ; preds = %28, %15
  %17 = load i32, i32* %4, align 4
  %18 = icmp slt i32 %17, 2
  br i1 %18, label %19, label %31

19:                                               ; preds = %16
  %20 = load i32, i32* %3, align 4
  %21 = sext i32 %20 to i64
  %22 = getelementptr inbounds [20 x [2 x [100 x i8]]], [20 x [2 x [100 x i8]]]* %9, i64 0, i64 %21
  %23 = load i32, i32* %4, align 4
  %24 = sext i32 %23 to i64
  %25 = getelementptr inbounds [2 x [100 x i8]], [2 x [100 x i8]]* %22, i64 0, i64 %24
  %26 = getelementptr inbounds [100 x i8], [100 x i8]* %25, i64 0, i64 0
  %27 = call i32 (i8*, ...) @__isoc99_scanf(i8* getelementptr inbounds ([3 x i8], [3 x i8]* @.str.1, i64 0, i64 0), i8* %26)
  br label %28

28:                                               ; preds = %19
  %29 = load i32, i32* %4, align 4
  %30 = add nsw i32 %29, 1
  store i32 %30, i32* %4, align 4
  br label %16

31:                                               ; preds = %16
  %32 = call i32 (i8*, ...) @printf(i8* getelementptr inbounds ([2 x i8], [2 x i8]* @.str.2, i64 0, i64 0))
  br label %33

33:                                               ; preds = %31
  %34 = load i32, i32* %3, align 4
  %35 = add nsw i32 %34, 1
  store i32 %35, i32* %3, align 4
  br label %11

36:                                               ; preds = %11
  store i32 0, i32* %3, align 4
  br label %37

37:                                               ; preds = %147, %36
  %38 = load i32, i32* %3, align 4
  %39 = load i32, i32* %2, align 4
  %40 = icmp slt i32 %38, %39
  br i1 %40, label %41, label %150

41:                                               ; preds = %37
  %42 = load i32, i32* %3, align 4
  %43 = sext i32 %42 to i64
  %44 = getelementptr inbounds [20 x [2 x [100 x i8]]], [20 x [2 x [100 x i8]]]* %9, i64 0, i64 %43
  %45 = getelementptr inbounds [2 x [100 x i8]], [2 x [100 x i8]]* %44, i64 0, i64 0
  %46 = getelementptr inbounds [100 x i8], [100 x i8]* %45, i64 0, i64 0
  %47 = call i64 @strlen(i8* %46) #3
  %48 = trunc i64 %47 to i32
  store i32 %48, i32* %6, align 4
  %49 = load i32, i32* %3, align 4
  %50 = sext i32 %49 to i64
  %51 = getelementptr inbounds [20 x [2 x [100 x i8]]], [20 x [2 x [100 x i8]]]* %9, i64 0, i64 %50
  %52 = getelementptr inbounds [2 x [100 x i8]], [2 x [100 x i8]]* %51, i64 0, i64 1
  %53 = getelementptr inbounds [100 x i8], [100 x i8]* %52, i64 0, i64 0
  %54 = call i64 @strlen(i8* %53) #3
  %55 = trunc i64 %54 to i32
  store i32 %55, i32* %7, align 4
  store i32 0, i32* %4, align 4
  br label %56

56:                                               ; preds = %117, %41
  %57 = load i32, i32* %4, align 4
  %58 = load i32, i32* %7, align 4
  %59 = icmp slt i32 %57, %58
  br i1 %59, label %60, label %120

60:                                               ; preds = %56
  %61 = load i32, i32* %3, align 4
  %62 = sext i32 %61 to i64
  %63 = getelementptr inbounds [20 x [2 x [100 x i8]]], [20 x [2 x [100 x i8]]]* %9, i64 0, i64 %62
  %64 = getelementptr inbounds [2 x [100 x i8]], [2 x [100 x i8]]* %63, i64 0, i64 0
  %65 = load i32, i32* %6, align 4
  %66 = load i32, i32* %4, align 4
  %67 = sub nsw i32 %65, %66
  %68 = sub nsw i32 %67, 1
  %69 = sext i32 %68 to i64
  %70 = getelementptr inbounds [100 x i8], [100 x i8]* %64, i64 0, i64 %69
  %71 = load i8, i8* %70, align 1
  %72 = sext i8 %71 to i32
  %73 = load i32, i32* %3, align 4
  %74 = sext i32 %73 to i64
  %75 = getelementptr inbounds [20 x [2 x [100 x i8]]], [20 x [2 x [100 x i8]]]* %9, i64 0, i64 %74
  %76 = getelementptr inbounds [2 x [100 x i8]], [2 x [100 x i8]]* %75, i64 0, i64 1
  %77 = load i32, i32* %7, align 4
  %78 = load i32, i32* %4, align 4
  %79 = sub nsw i32 %77, %78
  %80 = sub nsw i32 %79, 1
  %81 = sext i32 %80 to i64
  %82 = getelementptr inbounds [100 x i8], [100 x i8]* %76, i64 0, i64 %81
  %83 = load i8, i8* %82, align 1
  %84 = sext i8 %83 to i32
  %85 = sub nsw i32 %72, %84
  store i32 %85, i32* %8, align 4
  %86 = load i32, i32* %8, align 4
  %87 = icmp slt i32 %86, 0
  br i1 %87, label %88, label %103

88:                                               ; preds = %60
  %89 = load i32, i32* %8, align 4
  %90 = add nsw i32 %89, 10
  store i32 %90, i32* %8, align 4
  %91 = load i32, i32* %3, align 4
  %92 = sext i32 %91 to i64
  %93 = getelementptr inbounds [20 x [2 x [100 x i8]]], [20 x [2 x [100 x i8]]]* %9, i64 0, i64 %92
  %94 = getelementptr inbounds [2 x [100 x i8]], [2 x [100 x i8]]* %93, i64 0, i64 0
  %95 = load i32, i32* %6, align 4
  %96 = load i32, i32* %4, align 4
  %97 = sub nsw i32 %95, %96
  %98 = sub nsw i32 %97, 2
  %99 = sext i32 %98 to i64
  %100 = getelementptr inbounds [100 x i8], [100 x i8]* %94, i64 0, i64 %99
  %101 = load i8, i8* %100, align 1
  %102 = add i8 %101, -1
  store i8 %102, i8* %100, align 1
  br label %103

103:                                              ; preds = %88, %60
  %104 = load i32, i32* %8, align 4
  %105 = add nsw i32 %104, 48
  %106 = trunc i32 %105 to i8
  %107 = load i32, i32* %3, align 4
  %108 = sext i32 %107 to i64
  %109 = getelementptr inbounds [20 x [2 x [100 x i8]]], [20 x [2 x [100 x i8]]]* %9, i64 0, i64 %108
  %110 = getelementptr inbounds [2 x [100 x i8]], [2 x [100 x i8]]* %109, i64 0, i64 0
  %111 = load i32, i32* %6, align 4
  %112 = load i32, i32* %4, align 4
  %113 = sub nsw i32 %111, %112
  %114 = sub nsw i32 %113, 1
  %115 = sext i32 %114 to i64
  %116 = getelementptr inbounds [100 x i8], [100 x i8]* %110, i64 0, i64 %115
  store i8 %106, i8* %116, align 1
  br label %117

117:                                              ; preds = %103
  %118 = load i32, i32* %4, align 4
  %119 = add nsw i32 %118, 1
  store i32 %119, i32* %4, align 4
  br label %56

120:                                              ; preds = %56
  store i32 0, i32* %5, align 4
  br label %121

121:                                              ; preds = %136, %120
  %122 = load i32, i32* %5, align 4
  %123 = load i32, i32* %6, align 4
  %124 = icmp slt i32 %122, %123
  br i1 %124, label %125, label %139

125:                                              ; preds = %121
  %126 = load i32, i32* %3, align 4
  %127 = sext i32 %126 to i64
  %128 = getelementptr inbounds [20 x [2 x [100 x i8]]], [20 x [2 x [100 x i8]]]* %9, i64 0, i64 %127
  %129 = getelementptr inbounds [2 x [100 x i8]], [2 x [100 x i8]]* %128, i64 0, i64 0
  %130 = load i32, i32* %5, align 4
  %131 = sext i32 %130 to i64
  %132 = getelementptr inbounds [100 x i8], [100 x i8]* %129, i64 0, i64 %131
  %133 = load i8, i8* %132, align 1
  %134 = sext i8 %133 to i32
  %135 = call i32 (i8*, ...) @printf(i8* getelementptr inbounds ([3 x i8], [3 x i8]* @.str.3, i64 0, i64 0), i32 %134)
  br label %136

136:                                              ; preds = %125
  %137 = load i32, i32* %5, align 4
  %138 = add nsw i32 %137, 1
  store i32 %138, i32* %5, align 4
  br label %121

139:                                              ; preds = %121
  %140 = load i32, i32* %3, align 4
  %141 = load i32, i32* %2, align 4
  %142 = sub nsw i32 %141, 1
  %143 = icmp slt i32 %140, %142
  br i1 %143, label %144, label %146

144:                                              ; preds = %139
  %145 = call i32 (i8*, ...) @printf(i8* getelementptr inbounds ([2 x i8], [2 x i8]* @.str.2, i64 0, i64 0))
  br label %146

146:                                              ; preds = %144, %139
  br label %147

147:                                              ; preds = %146
  %148 = load i32, i32* %3, align 4
  %149 = add nsw i32 %148, 1
  store i32 %149, i32* %3, align 4
  br label %37

150:                                              ; preds = %37
  %151 = load i32, i32* %1, align 4
  ret i32 %151
}

declare dso_local i32 @__isoc99_scanf(i8*, ...) #1

declare dso_local i32 @printf(i8*, ...) #1

; Function Attrs: nounwind readonly
declare dso_local i64 @strlen(i8*) #2


!llvm.module.flags = !{!0}
!llvm.ident = !{!1}

!0 = !{i32 1, !"wchar_size", i32 4}
!1 = !{!"clang version 10.0.0-4ubuntu1 "}
